target datalayout = "e-m:e-p270:32:32-p271:32:32-p272:64:64-i64:64-i128:128-f80:128-n8:16:32:64-S128"
target triple = "x86_64-pc-linux-gnu"

%struct.H5VL_connector_prop_t = type { ptr, ptr }
%struct.H5CX_node_t = type { %struct.H5CX_t, ptr }
%struct.H5CX_t = type { i64, ptr, i64, ptr, i64, ptr, i64, ptr, i64, ptr, i64, ptr, i64, i32, i64, i8, ptr, i8, ptr, i8, i32, i8, [3 x double], i8, i64, i8, i32, i8, %struct.H5Z_cb_t, i8, ptr, i8, %struct.H5T_vlen_alloc_info_t, i8, %struct.H5T_conv_cb_t, i8, i32, i8, i8, i8, i32, i8, i8, i32, i8, i8, i32, i8, i32, i8, i64, i8, i8, i8, i8, i8, ptr, i8, ptr, i8, i32, i8, i32, i8, %struct.H5VL_connector_prop_t, i8, ptr, i8 }
%struct.H5Z_cb_t = type { ptr, ptr }
%struct.H5T_vlen_alloc_info_t = type { ptr, ptr, ptr, ptr }
%struct.H5T_conv_cb_t = type { ptr, ptr }

@H5P_CLS_FILE_ACCESS_ID_g = external global i64, align 8
@H5P_init_g = external global i8, align 1
@H5_libterm_g = external global i8, align 1
@.str.2 = private unnamed_addr constant [101 x i8] c"generated/home/dtcxzyw/WorkSpace/Projects/compilers/llvm-opt-benchmark/bench/hdf5/hdf5/src/H5Pfapl.c\00", align 1
@H5E_CANTREGISTER_g = external global i64, align 8
@H5E_BADID_g = external global i64, align 8
@H5E_CANTSET_g = external global i64, align 8
@H5E_PLIST_g = external global i64, align 8
@H5_libinit_g = external global i8, align 1
@H5E_FUNC_g = external global i64, align 8
@H5E_CANTINIT_g = external global i64, align 8
@.str.15 = private unnamed_addr constant [30 x i8] c"library initialization failed\00", align 1
@.str.16 = private unnamed_addr constant [32 x i8] c"interface initialization failed\00", align 1
@.str.17 = private unnamed_addr constant [22 x i8] c"can't set API context\00", align 1
@H5E_ID_g = external global i64, align 8
@.str.19 = private unnamed_addr constant [25 x i8] c"can't find object for ID\00", align 1
@__func__.H5Pset_evict_on_close = private unnamed_addr constant [22 x i8] c"H5Pset_evict_on_close\00", align 1
@.str.133 = private unnamed_addr constant [41 x i8] c"property list is not a file access plist\00", align 1
@.str.134 = private unnamed_addr constant [20 x i8] c"evict_on_close_flag\00", align 1
@.str.135 = private unnamed_addr constant [34 x i8] c"can't set evict on close property\00", align 1

; Function Attrs: nounwind uwtable
define i32 @H5Pset_evict_on_close(i64 noundef %0, i1 noundef zeroext %1) #0 {
  %3 = alloca i64, align 8
  %4 = alloca i8, align 1
  %5 = alloca ptr, align 8
  %6 = alloca i32, align 4
  %7 = alloca %struct.H5CX_node_t, align 8
  %8 = alloca i8, align 1
  %9 = alloca i8, align 1
  store i64 %0, ptr %3, align 8, !tbaa !8
  %10 = zext i1 %1 to i8
  store i8 %10, ptr %4, align 1, !tbaa !22
  call void @llvm.lifetime.start.p0(i64 8, ptr %5) #10
  call void @llvm.lifetime.start.p0(i64 4, ptr %6) #10
  store i32 0, ptr %6, align 4, !tbaa !20
  call void @llvm.lifetime.start.p0(i64 480, ptr %7) #10
  call void @llvm.memset.p0.i64(ptr align 8 %7, i8 0, i64 480, i1 false)
  call void @llvm.lifetime.start.p0(i64 1, ptr %8) #10
  store i8 0, ptr %8, align 1, !tbaa !22
  call void @llvm.lifetime.start.p0(i64 1, ptr %9) #10
  store i8 0, ptr %9, align 1, !tbaa !22
  br label %11

11:                                               ; preds = %2
  %12 = load i8, ptr @H5_libinit_g, align 1, !tbaa !22, !range !24, !noundef !25
  %13 = trunc i8 %12 to i1
  br i1 %13, label %18, label %14

14:                                               ; preds = %11
  %15 = load i8, ptr @H5_libterm_g, align 1, !tbaa !22, !range !24, !noundef !25
  %16 = trunc i8 %15 to i1
  %17 = xor i1 %16, true
  br label %18

18:                                               ; preds = %14, %11
  %19 = phi i1 [ false, %11 ], [ %17, %14 ]
  %20 = xor i1 %19, true
  %21 = xor i1 %20, true
  %22 = zext i1 %21 to i32
  %23 = sext i32 %22 to i64
  %24 = call i64 @llvm.expect.i64(i64 %23, i64 0)
  %25 = icmp ne i64 %24, 0
  br i1 %25, label %26, label %55

26:                                               ; preds = %18
  %27 = call i32 @H5_init_library()
  %28 = icmp slt i32 %27, 0
  %29 = xor i1 %28, true
  %30 = xor i1 %29, true
  %31 = zext i1 %30 to i32
  %32 = sext i32 %31 to i64
  %33 = call i64 @llvm.expect.i64(i64 %32, i64 0)
  %34 = icmp ne i64 %33, 0
  br i1 %34, label %35, label %54

35:                                               ; preds = %26
  br label %36

36:                                               ; preds = %35
  br label %37

37:                                               ; preds = %36
  br label %38

38:                                               ; preds = %37
  %39 = load i64, ptr @H5E_FUNC_g, align 8, !tbaa !8
  %40 = load i64, ptr @H5E_CANTINIT_g, align 8, !tbaa !8
  %41 = call i32 (ptr, ptr, i32, i64, i64, ptr, ...) @H5E_printf_stack(ptr noundef @.str.2, ptr noundef @__func__.H5Pset_evict_on_close, i32 noundef 4918, i64 noundef %39, i64 noundef %40, ptr noundef @.str.15)
  br label %42

42:                                               ; preds = %38
  br label %43

43:                                               ; preds = %42
  store i8 1, ptr %9, align 1, !tbaa !22
  %44 = load i8, ptr %9, align 1, !tbaa !22, !range !24, !noundef !25
  %45 = trunc i8 %44 to i1
  %46 = zext i1 %45 to i8
  store i8 %46, ptr %9, align 1, !tbaa !22
  br label %47

47:                                               ; preds = %43
  br label %48

48:                                               ; preds = %47
  br label %49

49:                                               ; preds = %48
  store i32 -1, ptr %6, align 4, !tbaa !20
  br label %199

50:                                               ; No predecessors!
  br label %51

51:                                               ; preds = %50
  br label %52

52:                                               ; preds = %51
  br label %53

53:                                               ; preds = %52
  br label %54

54:                                               ; preds = %53, %26
  br label %55

55:                                               ; preds = %54, %18
  %56 = load i8, ptr @H5P_init_g, align 1, !tbaa !22, !range !24, !noundef !25
  %57 = trunc i8 %56 to i1
  br i1 %57, label %62, label %58

58:                                               ; preds = %55
  %59 = load i8, ptr @H5_libterm_g, align 1, !tbaa !22, !range !24, !noundef !25
  %60 = trunc i8 %59 to i1
  %61 = xor i1 %60, true
  br label %62

62:                                               ; preds = %58, %55
  %63 = phi i1 [ false, %55 ], [ %61, %58 ]
  %64 = xor i1 %63, true
  %65 = xor i1 %64, true
  %66 = zext i1 %65 to i32
  %67 = sext i32 %66 to i64
  %68 = call i64 @llvm.expect.i64(i64 %67, i64 0)
  %69 = icmp ne i64 %68, 0
  br i1 %69, label %70, label %93

70:                                               ; preds = %62
  store i8 1, ptr @H5P_init_g, align 1, !tbaa !22
  %71 = call i32 @H5P__init_package()
  %72 = icmp slt i32 %71, 0
  br i1 %72, label %73, label %92

73:                                               ; preds = %70
  store i8 0, ptr @H5P_init_g, align 1, !tbaa !22
  br label %74

74:                                               ; preds = %73
  br label %75

75:                                               ; preds = %74
  br label %76

76:                                               ; preds = %75
  %77 = load i64, ptr @H5E_FUNC_g, align 8, !tbaa !8
  %78 = load i64, ptr @H5E_CANTINIT_g, align 8, !tbaa !8
  %79 = call i32 (ptr, ptr, i32, i64, i64, ptr, ...) @H5E_printf_stack(ptr noundef @.str.2, ptr noundef @__func__.H5Pset_evict_on_close, i32 noundef 4918, i64 noundef %77, i64 noundef %78, ptr noundef @.str.16)
  br label %80

80:                                               ; preds = %76
  br label %81

81:                                               ; preds = %80
  store i8 1, ptr %9, align 1, !tbaa !22
  %82 = load i8, ptr %9, align 1, !tbaa !22, !range !24, !noundef !25
  %83 = trunc i8 %82 to i1
  %84 = zext i1 %83 to i8
  store i8 %84, ptr %9, align 1, !tbaa !22
  br label %85

85:                                               ; preds = %81
  br label %86

86:                                               ; preds = %85
  br label %87

87:                                               ; preds = %86
  store i32 -1, ptr %6, align 4, !tbaa !20
  br label %199

88:                                               ; No predecessors!
  br label %89

89:                                               ; preds = %88
  br label %90

90:                                               ; preds = %89
  br label %91

91:                                               ; preds = %90
  br label %92

92:                                               ; preds = %91, %70
  br label %93

93:                                               ; preds = %92, %62
  br label %94

94:                                               ; preds = %93
  br label %95

95:                                               ; preds = %94
  br label %96

96:                                               ; preds = %95
  %97 = call i32 @H5CX_push(ptr noundef %7)
  %98 = icmp slt i32 %97, 0
  %99 = xor i1 %98, true
  %100 = xor i1 %99, true
  %101 = zext i1 %100 to i32
  %102 = sext i32 %101 to i64
  %103 = call i64 @llvm.expect.i64(i64 %102, i64 0)
  %104 = icmp ne i64 %103, 0
  br i1 %104, label %105, label %124

105:                                              ; preds = %96
  br label %106

106:                                              ; preds = %105
  br label %107

107:                                              ; preds = %106
  br label %108

108:                                              ; preds = %107
  %109 = load i64, ptr @H5E_FUNC_g, align 8, !tbaa !8
  %110 = load i64, ptr @H5E_CANTSET_g, align 8, !tbaa !8
  %111 = call i32 (ptr, ptr, i32, i64, i64, ptr, ...) @H5E_printf_stack(ptr noundef @.str.2, ptr noundef @__func__.H5Pset_evict_on_close, i32 noundef 4918, i64 noundef %109, i64 noundef %110, ptr noundef @.str.17)
  br label %112

112:                                              ; preds = %108
  br label %113

113:                                              ; preds = %112
  store i8 1, ptr %9, align 1, !tbaa !22
  %114 = load i8, ptr %9, align 1, !tbaa !22, !range !24, !noundef !25
  %115 = trunc i8 %114 to i1
  %116 = zext i1 %115 to i8
  store i8 %116, ptr %9, align 1, !tbaa !22
  br label %117

117:                                              ; preds = %113
  br label %118

118:                                              ; preds = %117
  br label %119

119:                                              ; preds = %118
  store i32 -1, ptr %6, align 4, !tbaa !20
  br label %199

120:                                              ; No predecessors!
  br label %121

121:                                              ; preds = %120
  br label %122

122:                                              ; preds = %121
  br label %123

123:                                              ; preds = %122
  br label %125

124:                                              ; preds = %96
  store i8 1, ptr %8, align 1, !tbaa !22
  br label %125

125:                                              ; preds = %124, %123
  br label %126

126:                                              ; preds = %125
  br label %127

127:                                              ; preds = %126
  %128 = call i32 @H5E_clear_stack()
  %129 = load i64, ptr %3, align 8, !tbaa !8
  %130 = load i64, ptr @H5P_CLS_FILE_ACCESS_ID_g, align 8, !tbaa !8
  %131 = call i32 @H5P_isa_class(i64 noundef %129, i64 noundef %130)
  %132 = icmp ne i32 1, %131
  br i1 %132, label %133, label %152

133:                                              ; preds = %127
  br label %134

134:                                              ; preds = %133
  br label %135

135:                                              ; preds = %134
  br label %136

136:                                              ; preds = %135
  %137 = load i64, ptr @H5E_PLIST_g, align 8, !tbaa !8
  %138 = load i64, ptr @H5E_CANTREGISTER_g, align 8, !tbaa !8
  %139 = call i32 (ptr, ptr, i32, i64, i64, ptr, ...) @H5E_printf_stack(ptr noundef @.str.2, ptr noundef @__func__.H5Pset_evict_on_close, i32 noundef 4922, i64 noundef %137, i64 noundef %138, ptr noundef @.str.133)
  br label %140

140:                                              ; preds = %136
  br label %141

141:                                              ; preds = %140
  store i8 1, ptr %9, align 1, !tbaa !22
  %142 = load i8, ptr %9, align 1, !tbaa !22, !range !24, !noundef !25
  %143 = trunc i8 %142 to i1
  %144 = zext i1 %143 to i8
  store i8 %144, ptr %9, align 1, !tbaa !22
  br label %145

145:                                              ; preds = %141
  br label %146

146:                                              ; preds = %145
  br label %147

147:                                              ; preds = %146
  store i32 -1, ptr %6, align 4, !tbaa !20
  br label %199

148:                                              ; No predecessors!
  br label %149

149:                                              ; preds = %148
  br label %150

150:                                              ; preds = %149
  br label %151

151:                                              ; preds = %150
  br label %152

152:                                              ; preds = %151, %127
  %153 = load i64, ptr %3, align 8, !tbaa !8
  %154 = call ptr @H5I_object(i64 noundef %153)
  store ptr %154, ptr %5, align 8, !tbaa !28
  %155 = icmp eq ptr null, %154
  br i1 %155, label %156, label %175

156:                                              ; preds = %152
  br label %157

157:                                              ; preds = %156
  br label %158

158:                                              ; preds = %157
  br label %159

159:                                              ; preds = %158
  %160 = load i64, ptr @H5E_ID_g, align 8, !tbaa !8
  %161 = load i64, ptr @H5E_BADID_g, align 8, !tbaa !8
  %162 = call i32 (ptr, ptr, i32, i64, i64, ptr, ...) @H5E_printf_stack(ptr noundef @.str.2, ptr noundef @__func__.H5Pset_evict_on_close, i32 noundef 4926, i64 noundef %160, i64 noundef %161, ptr noundef @.str.19)
  br label %163

163:                                              ; preds = %159
  br label %164

164:                                              ; preds = %163
  store i8 1, ptr %9, align 1, !tbaa !22
  %165 = load i8, ptr %9, align 1, !tbaa !22, !range !24, !noundef !25
  %166 = trunc i8 %165 to i1
  %167 = zext i1 %166 to i8
  store i8 %167, ptr %9, align 1, !tbaa !22
  br label %168

168:                                              ; preds = %164
  br label %169

169:                                              ; preds = %168
  br label %170

170:                                              ; preds = %169
  store i32 -1, ptr %6, align 4, !tbaa !20
  br label %199

171:                                              ; No predecessors!
  br label %172

172:                                              ; preds = %171
  br label %173

173:                                              ; preds = %172
  br label %174

174:                                              ; preds = %173
  br label %175

175:                                              ; preds = %174, %152
  %176 = load ptr, ptr %5, align 8, !tbaa !28
  %177 = call i32 @H5P_set(ptr noundef %176, ptr noundef @.str.134, ptr noundef %4)
  %178 = icmp slt i32 %177, 0
  br i1 %178, label %179, label %198

179:                                              ; preds = %175
  br label %180

180:                                              ; preds = %179
  br label %181

181:                                              ; preds = %180
  br label %182

182:                                              ; preds = %181
  %183 = load i64, ptr @H5E_PLIST_g, align 8, !tbaa !8
  %184 = load i64, ptr @H5E_CANTSET_g, align 8, !tbaa !8
  %185 = call i32 (ptr, ptr, i32, i64, i64, ptr, ...) @H5E_printf_stack(ptr noundef @.str.2, ptr noundef @__func__.H5Pset_evict_on_close, i32 noundef 4930, i64 noundef %183, i64 noundef %184, ptr noundef @.str.135)
  br label %186

186:                                              ; preds = %182
  br label %187

187:                                              ; preds = %186
  store i8 1, ptr %9, align 1, !tbaa !22
  %188 = load i8, ptr %9, align 1, !tbaa !22, !range !24, !noundef !25
  %189 = trunc i8 %188 to i1
  %190 = zext i1 %189 to i8
  store i8 %190, ptr %9, align 1, !tbaa !22
  br label %191

191:                                              ; preds = %187
  br label %192

192:                                              ; preds = %191
  br label %193

193:                                              ; preds = %192
  store i32 -1, ptr %6, align 4, !tbaa !20
  br label %199

194:                                              ; No predecessors!
  br label %195

195:                                              ; preds = %194
  br label %196

196:                                              ; preds = %195
  br label %197

197:                                              ; preds = %196
  br label %198

198:                                              ; preds = %197, %175
  br label %199

199:                                              ; preds = %198, %193, %170, %147, %119, %87, %49
  %200 = load i8, ptr %8, align 1, !tbaa !22, !range !24, !noundef !25
  %201 = trunc i8 %200 to i1
  %202 = xor i1 %201, true
  %203 = xor i1 %202, true
  %204 = zext i1 %203 to i32
  %205 = sext i32 %204 to i64
  %206 = call i64 @llvm.expect.i64(i64 %205, i64 1)
  %207 = icmp ne i64 %206, 0
  br i1 %207, label %208, label %210

208:                                              ; preds = %199
  %209 = call i32 @H5CX_pop(i1 noundef zeroext true)
  store i8 0, ptr %8, align 1, !tbaa !22
  br label %210

210:                                              ; preds = %208, %199
  %211 = load i8, ptr %9, align 1, !tbaa !22, !range !24, !noundef !25
  %212 = trunc i8 %211 to i1
  %213 = xor i1 %212, true
  %214 = xor i1 %213, true
  %215 = zext i1 %214 to i32
  %216 = sext i32 %215 to i64
  %217 = call i64 @llvm.expect.i64(i64 %216, i64 0)
  %218 = icmp ne i64 %217, 0
  br i1 %218, label %219, label %221

219:                                              ; preds = %210
  %220 = call i32 @H5E_dump_api_stack()
  br label %221

221:                                              ; preds = %219, %210
  %222 = load i32, ptr %6, align 4, !tbaa !20
  call void @llvm.lifetime.end.p0(i64 1, ptr %9) #10
  call void @llvm.lifetime.end.p0(i64 1, ptr %8) #10
  call void @llvm.lifetime.end.p0(i64 480, ptr %7) #10
  call void @llvm.lifetime.end.p0(i64 4, ptr %6) #10
  call void @llvm.lifetime.end.p0(i64 8, ptr %5) #10
  ret i32 %222
}