; Function Attrs: nounwind uwtable
define range(i32 -1, 1) i32 @H5Pset_evict_on_close(i64 noundef %0, i1 noundef zeroext %1) local_unnamed_addr #0 {
  %3 = alloca i8, align 1
  %4 = alloca %struct.H5CX_node_t, align 8
  %5 = zext i1 %1 to i8
  store i8 %5, ptr %3, align 1, !tbaa !16
  call void @llvm.lifetime.start.p0(i64 480, ptr nonnull %4) #15
  call void @llvm.memset.p0.i64(ptr noundef nonnull align 8 dereferenceable(480) %4, i8 0, i64 480, i1 false)
  %6 = load i8, ptr @H5_libinit_g, align 1, !tbaa !16, !range !18, !noundef !19
  %7 = trunc nuw i8 %6 to i1
  %8 = load i8, ptr @H5_libterm_g, align 1, !range !18
  %9 = trunc nuw i8 %8 to i1
  %10 = select i1 %7, i1 true, i1 %9
  br i1 %10, label %18, label %11, !prof !20

11:                                               ; preds = %2
  %12 = tail call i32 @H5_init_library() #15
  %13 = icmp slt i32 %12, 0
  br i1 %13, label %14, label %._crit_edge, !prof !28

._crit_edge:                                      ; preds = %11
  %.pre = load i8, ptr @H5_libterm_g, align 1, !range !18
  br label %18

14:                                               ; preds = %11
  %15 = load i64, ptr @H5E_FUNC_g, align 8, !tbaa !3
  %16 = load i64, ptr @H5E_CANTINIT_g, align 8, !tbaa !3
  %17 = tail call i32 (ptr, ptr, i32, i64, i64, ptr, ...) @H5E_printf_stack(ptr noundef nonnull @.str.2, ptr noundef nonnull @__func__.H5Pset_evict_on_close, i32 noundef 4918, i64 noundef %15, i64 noundef %16, ptr noundef nonnull @.str.15) #15
  br label %.thread22

18:                                               ; preds = %._crit_edge, %2
  %19 = phi i8 [ %.pre, %._crit_edge ], [ %8, %2 ]
  %20 = load i8, ptr @H5P_init_g, align 1, !tbaa !16, !range !18, !noundef !19
  %21 = trunc nuw i8 %20 to i1
  %22 = trunc nuw i8 %19 to i1
  %23 = select i1 %21, i1 true, i1 %22
  br i1 %23, label %31, label %24, !prof !20

24:                                               ; preds = %18
  store i8 1, ptr @H5P_init_g, align 1, !tbaa !16
  %25 = tail call i32 @H5P__init_package() #15
  %26 = icmp slt i32 %25, 0
  br i1 %26, label %27, label %31, !prof !29

27:                                               ; preds = %24
  store i8 0, ptr @H5P_init_g, align 1, !tbaa !16
  %28 = load i64, ptr @H5E_FUNC_g, align 8, !tbaa !3
  %29 = load i64, ptr @H5E_CANTINIT_g, align 8, !tbaa !3
  %30 = tail call i32 (ptr, ptr, i32, i64, i64, ptr, ...) @H5E_printf_stack(ptr noundef nonnull @.str.2, ptr noundef nonnull @__func__.H5Pset_evict_on_close, i32 noundef 4918, i64 noundef %28, i64 noundef %29, ptr noundef nonnull @.str.16) #15
  br label %.thread22

31:                                               ; preds = %18, %24
  %32 = call i32 @H5CX_push(ptr noundef nonnull %4) #15
  %33 = icmp slt i32 %32, 0
  br i1 %33, label %34, label %38, !prof !28

34:                                               ; preds = %31
  %35 = load i64, ptr @H5E_FUNC_g, align 8, !tbaa !3
  %36 = load i64, ptr @H5E_CANTSET_g, align 8, !tbaa !3
  %37 = call i32 (ptr, ptr, i32, i64, i64, ptr, ...) @H5E_printf_stack(ptr noundef nonnull @.str.2, ptr noundef nonnull @__func__.H5Pset_evict_on_close, i32 noundef 4918, i64 noundef %35, i64 noundef %36, ptr noundef nonnull @.str.17) #15
  br label %.thread22

38:                                               ; preds = %31
  %39 = call i32 @H5E_clear_stack() #15
  %40 = load i64, ptr @H5P_CLS_FILE_ACCESS_ID_g, align 8, !tbaa !3
  %41 = call i32 @H5P_isa_class(i64 noundef %0, i64 noundef %40) #15
  %.not = icmp eq i32 %41, 1
  br i1 %.not, label %46, label %42, !prof !37

42:                                               ; preds = %38
  %43 = load i64, ptr @H5E_PLIST_g, align 8, !tbaa !3
  %44 = load i64, ptr @H5E_CANTREGISTER_g, align 8, !tbaa !3
  %45 = call i32 (ptr, ptr, i32, i64, i64, ptr, ...) @H5E_printf_stack(ptr noundef nonnull @.str.2, ptr noundef nonnull @__func__.H5Pset_evict_on_close, i32 noundef 4922, i64 noundef %43, i64 noundef %44, ptr noundef nonnull @.str.133) #15
  br label %.thread28

46:                                               ; preds = %38
  %47 = call ptr @H5I_object(i64 noundef %0) #15
  %48 = icmp eq ptr %47, null
  br i1 %48, label %49, label %53, !prof !30

49:                                               ; preds = %46
  %50 = load i64, ptr @H5E_ID_g, align 8, !tbaa !3
  %51 = load i64, ptr @H5E_BADID_g, align 8, !tbaa !3
  %52 = call i32 (ptr, ptr, i32, i64, i64, ptr, ...) @H5E_printf_stack(ptr noundef nonnull @.str.2, ptr noundef nonnull @__func__.H5Pset_evict_on_close, i32 noundef 4926, i64 noundef %50, i64 noundef %51, ptr noundef nonnull @.str.19) #15
  br label %.thread28

53:                                               ; preds = %46
  %54 = call i32 @H5P_set(ptr noundef nonnull %47, ptr noundef nonnull @.str.134, ptr noundef nonnull %3) #15
  %55 = icmp slt i32 %54, 0
  br i1 %55, label %56, label %61, !prof !30

56:                                               ; preds = %53
  %57 = load i64, ptr @H5E_PLIST_g, align 8, !tbaa !3
  %58 = load i64, ptr @H5E_CANTSET_g, align 8, !tbaa !3
  %59 = call i32 (ptr, ptr, i32, i64, i64, ptr, ...) @H5E_printf_stack(ptr noundef nonnull @.str.2, ptr noundef nonnull @__func__.H5Pset_evict_on_close, i32 noundef 4930, i64 noundef %57, i64 noundef %58, ptr noundef nonnull @.str.135) #15
  br label %.thread28

.thread28:                                        ; preds = %56, %49, %42
  %60 = call i32 @H5CX_pop(i1 noundef zeroext true) #15
  br label %.thread22

61:                                               ; preds = %53
  %62 = call i32 @H5CX_pop(i1 noundef zeroext true) #15
  br label %64

.thread22:                                        ; preds = %34, %27, %14, %.thread28
  %63 = call i32 @H5E_dump_api_stack() #15
  br label %64

64:                                               ; preds = %61, %.thread22
  %.0121725 = phi i32 [ -1, %.thread22 ], [ 0, %61 ]
  call void @llvm.lifetime.end.p0(i64 480, ptr nonnull %4) #15
  ret i32 %.0121725
}